target datalayout = "e-m:e-p270:32:32-p271:32:32-p272:64:64-i64:64-i128:128-f80:128-n8:16:32:64-S128"
target triple = "x86_64-unknown-linux-gnu"

%struct.ecc_point = type { [1 x %struct.sp_int], [1 x %struct.sp_int], [1 x %struct.sp_int] }
%struct.sp_int = type { i32, i32, [129 x i64] }

; Function Attrs: nounwind uwtable
define i32 @ecc_map_ex(ptr noundef %P, ptr noundef %modulus, i64 noundef %mp, i32 noundef %ct) #0 {
entry:
  %retval = alloca i32, align 4
  %P.addr = alloca ptr, align 8
  %modulus.addr = alloca ptr, align 8
  %mp.addr = alloca i64, align 8
  %ct.addr = alloca i32, align 4
  %saved_stack = alloca ptr, align 8
  %__vla_expr0 = alloca i64, align 8
  %t1 = alloca ptr, align 8
  %__vla_expr1 = alloca i64, align 8
  %t2 = alloca ptr, align 8
  %x = alloca ptr, align 8
  %y = alloca ptr, align 8
  %z = alloca ptr, align 8
  %err = alloca i32, align 4
  %cleanup.dest.slot = alloca i32, align 4
  store ptr %P, ptr %P.addr, align 8
  store ptr %modulus, ptr %modulus.addr, align 8
  store i64 %mp, ptr %mp.addr, align 8
  store i32 %ct, ptr %ct.addr, align 4
  %0 = load ptr, ptr %modulus.addr, align 8
  %used = getelementptr inbounds %struct.sp_int, ptr %0, i32 0, i32 0
  %1 = load i32, ptr %used, align 8
  %mul = mul i32 %1, 64
  %add = add i32 %mul, 64
  %sub = sub i32 %add, 1
  %div = udiv i32 %sub, 64
  %mul1 = mul i32 %div, 2
  %add2 = add i32 %mul1, 1
  %cmp = icmp ule i32 %add2, 1
  br i1 %cmp, label %cond.true, label %cond.false

cond.true:                                        ; preds = %entry
  br label %cond.end

cond.false:                                       ; preds = %entry
  %2 = load ptr, ptr %modulus.addr, align 8
  %used3 = getelementptr inbounds %struct.sp_int, ptr %2, i32 0, i32 0
  %3 = load i32, ptr %used3, align 8
  %mul4 = mul i32 %3, 64
  %add5 = add i32 %mul4, 64
  %sub6 = sub i32 %add5, 1
  %div7 = udiv i32 %sub6, 64
  %mul8 = mul i32 %div7, 2
  %add9 = add i32 %mul8, 1
  %sub10 = sub i32 %add9, 1
  br label %cond.end

cond.end:                                         ; preds = %cond.false, %cond.true
  %cond = phi i32 [ 0, %cond.true ], [ %sub10, %cond.false ]
  %conv = zext i32 %cond to i64
  %mul11 = mul i64 %conv, 8
  %add12 = add i64 16, %mul11
  %4 = call ptr @llvm.stacksave.p0()
  store ptr %4, ptr %saved_stack, align 8
  %vla = alloca i8, i64 %add12, align 16
  store i64 %add12, ptr %__vla_expr0, align 8
  store ptr %vla, ptr %t1, align 8
  %5 = load ptr, ptr %modulus.addr, align 8
  %used13 = getelementptr inbounds %struct.sp_int, ptr %5, i32 0, i32 0
  %6 = load i32, ptr %used13, align 8
  %mul14 = mul i32 %6, 64
  %add15 = add i32 %mul14, 64
  %sub16 = sub i32 %add15, 1
  %div17 = udiv i32 %sub16, 64
  %mul18 = mul i32 %div17, 2
  %add19 = add i32 %mul18, 1
  %cmp20 = icmp ule i32 %add19, 1
  br i1 %cmp20, label %cond.true22, label %cond.false23

cond.true22:                                      ; preds = %cond.end
  br label %cond.end32

cond.false23:                                     ; preds = %cond.end
  %7 = load ptr, ptr %modulus.addr, align 8
  %used24 = getelementptr inbounds %struct.sp_int, ptr %7, i32 0, i32 0
  %8 = load i32, ptr %used24, align 8
  %mul25 = mul i32 %8, 64
  %add26 = add i32 %mul25, 64
  %sub27 = sub i32 %add26, 1
  %div28 = udiv i32 %sub27, 64
  %mul29 = mul i32 %div28, 2
  %add30 = add i32 %mul29, 1
  %sub31 = sub i32 %add30, 1
  br label %cond.end32

cond.end32:                                       ; preds = %cond.false23, %cond.true22
  %cond33 = phi i32 [ 0, %cond.true22 ], [ %sub31, %cond.false23 ]
  %conv34 = zext i32 %cond33 to i64
  %mul35 = mul i64 %conv34, 8
  %add36 = add i64 16, %mul35
  %vla37 = alloca i8, i64 %add36, align 16
  store i64 %add36, ptr %__vla_expr1, align 8
  store ptr %vla37, ptr %t2, align 8
  %9 = load ptr, ptr %P.addr, align 8
  %cmp38 = icmp eq ptr %9, null
  br i1 %cmp38, label %if.then, label %lor.lhs.false

lor.lhs.false:                                    ; preds = %cond.end32
  %10 = load ptr, ptr %modulus.addr, align 8
  %cmp40 = icmp eq ptr %10, null
  br i1 %cmp40, label %if.then, label %if.end

if.then:                                          ; preds = %lor.lhs.false, %cond.end32
  store i32 -170, ptr %retval, align 4
  store i32 1, ptr %cleanup.dest.slot, align 4
  br label %cleanup

if.end:                                           ; preds = %lor.lhs.false
  %11 = load ptr, ptr %P.addr, align 8
  %z42 = getelementptr inbounds %struct.ecc_point, ptr %11, i32 0, i32 2
  %arraydecay = getelementptr inbounds [1 x %struct.sp_int], ptr %z42, i64 0, i64 0
  %call = call i32 @sp_cmp_d(ptr noundef %arraydecay, i64 noundef 0)
  %cmp43 = icmp eq i32 %call, 0
  br i1 %cmp43, label %if.then45, label %if.end63

if.then45:                                        ; preds = %if.end
  %12 = load ptr, ptr %P.addr, align 8
  %x46 = getelementptr inbounds %struct.ecc_point, ptr %12, i32 0, i32 0
  %arraydecay47 = getelementptr inbounds [1 x %struct.sp_int], ptr %x46, i64 0, i64 0
  %call48 = call i32 @sp_set(ptr noundef %arraydecay47, i64 noundef 0)
  store i32 %call48, ptr %err, align 4
  %13 = load i32, ptr %err, align 4
  %cmp49 = icmp eq i32 %13, 0
  br i1 %cmp49, label %if.then51, label %if.end55

if.then51:                                        ; preds = %if.then45
  %14 = load ptr, ptr %P.addr, align 8
  %y52 = getelementptr inbounds %struct.ecc_point, ptr %14, i32 0, i32 1
  %arraydecay53 = getelementptr inbounds [1 x %struct.sp_int], ptr %y52, i64 0, i64 0
  %call54 = call i32 @sp_set(ptr noundef %arraydecay53, i64 noundef 0)
  store i32 %call54, ptr %err, align 4
  br label %if.end55

if.end55:                                         ; preds = %if.then51, %if.then45
  %15 = load i32, ptr %err, align 4
  %cmp56 = icmp eq i32 %15, 0
  br i1 %cmp56, label %if.then58, label %if.end62

if.then58:                                        ; preds = %if.end55
  %16 = load ptr, ptr %P.addr, align 8
  %z59 = getelementptr inbounds %struct.ecc_point, ptr %16, i32 0, i32 2
  %arraydecay60 = getelementptr inbounds [1 x %struct.sp_int], ptr %z59, i64 0, i64 0
  %call61 = call i32 @sp_set(ptr noundef %arraydecay60, i64 noundef 1)
  store i32 %call61, ptr %err, align 4
  br label %if.end62

if.end62:                                         ; preds = %if.then58, %if.end55
  %17 = load i32, ptr %err, align 4
  store i32 %17, ptr %retval, align 4
  store i32 1, ptr %cleanup.dest.slot, align 4
  br label %cleanup

if.end63:                                         ; preds = %if.end
  %18 = load ptr, ptr %t1, align 8
  %19 = load ptr, ptr %modulus.addr, align 8
  %used64 = getelementptr inbounds %struct.sp_int, ptr %19, i32 0, i32 0
  %20 = load i32, ptr %used64, align 8
  %mul65 = mul i32 %20, 64
  %add66 = add i32 %mul65, 64
  %sub67 = sub i32 %add66, 1
  %div68 = udiv i32 %sub67, 64
  %mul69 = mul i32 %div68, 2
  %add70 = add i32 %mul69, 1
  %cmp71 = icmp ule i32 %add70, 1
  br i1 %cmp71, label %cond.true73, label %cond.false74

cond.true73:                                      ; preds = %if.end63
  br label %cond.end83

cond.false74:                                     ; preds = %if.end63
  %21 = load ptr, ptr %modulus.addr, align 8
  %used75 = getelementptr inbounds %struct.sp_int, ptr %21, i32 0, i32 0
  %22 = load i32, ptr %used75, align 8
  %mul76 = mul i32 %22, 64
  %add77 = add i32 %mul76, 64
  %sub78 = sub i32 %add77, 1
  %div79 = udiv i32 %sub78, 64
  %mul80 = mul i32 %div79, 2
  %add81 = add i32 %mul80, 1
  %sub82 = sub i32 %add81, 1
  br label %cond.end83

cond.end83:                                       ; preds = %cond.false74, %cond.true73
  %cond84 = phi i32 [ 0, %cond.true73 ], [ %sub82, %cond.false74 ]
  %conv85 = zext i32 %cond84 to i64
  %mul86 = mul i64 %conv85, 8
  %add87 = add i64 16, %mul86
  call void @llvm.memset.p0.i64(ptr align 8 %18, i8 0, i64 %add87, i1 false)
  %23 = load ptr, ptr %t2, align 8
  %24 = load ptr, ptr %modulus.addr, align 8
  %used88 = getelementptr inbounds %struct.sp_int, ptr %24, i32 0, i32 0
  %25 = load i32, ptr %used88, align 8
  %mul89 = mul i32 %25, 64
  %add90 = add i32 %mul89, 64
  %sub91 = sub i32 %add90, 1
  %div92 = udiv i32 %sub91, 64
  %mul93 = mul i32 %div92, 2
  %add94 = add i32 %mul93, 1
  %cmp95 = icmp ule i32 %add94, 1
  br i1 %cmp95, label %cond.true97, label %cond.false98

cond.true97:                                      ; preds = %cond.end83
  br label %cond.end107

cond.false98:                                     ; preds = %cond.end83
  %26 = load ptr, ptr %modulus.addr, align 8
  %used99 = getelementptr inbounds %struct.sp_int, ptr %26, i32 0, i32 0
  %27 = load i32, ptr %used99, align 8
  %mul100 = mul i32 %27, 64
  %add101 = add i32 %mul100, 64
  %sub102 = sub i32 %add101, 1
  %div103 = udiv i32 %sub102, 64
  %mul104 = mul i32 %div103, 2
  %add105 = add i32 %mul104, 1
  %sub106 = sub i32 %add105, 1
  br label %cond.end107

cond.end107:                                      ; preds = %cond.false98, %cond.true97
  %cond108 = phi i32 [ 0, %cond.true97 ], [ %sub106, %cond.false98 ]
  %conv109 = zext i32 %cond108 to i64
  %mul110 = mul i64 %conv109, 8
  %add111 = add i64 16, %mul110
  call void @llvm.memset.p0.i64(ptr align 8 %23, i8 0, i64 %add111, i1 false)
  %28 = load ptr, ptr %t1, align 8
  %29 = load ptr, ptr %modulus.addr, align 8
  %used112 = getelementptr inbounds %struct.sp_int, ptr %29, i32 0, i32 0
  %30 = load i32, ptr %used112, align 8
  %mul113 = mul i32 %30, 64
  %add114 = add i32 %mul113, 64
  %sub115 = sub i32 %add114, 1
  %div116 = udiv i32 %sub115, 64
  %mul117 = mul i32 %div116, 2
  %add118 = add i32 %mul117, 1
  %call119 = call i32 @sp_init_size(ptr noundef %28, i32 noundef %add118)
  store i32 %call119, ptr %err, align 4
  %31 = load i32, ptr %err, align 4
  %cmp120 = icmp eq i32 %31, 0
  br i1 %cmp120, label %if.then122, label %if.end131

if.then122:                                       ; preds = %cond.end107
  %32 = load ptr, ptr %t2, align 8
  %33 = load ptr, ptr %modulus.addr, align 8
  %used123 = getelementptr inbounds %struct.sp_int, ptr %33, i32 0, i32 0
  %34 = load i32, ptr %used123, align 8
  %mul124 = mul i32 %34, 64
  %add125 = add i32 %mul124, 64
  %sub126 = sub i32 %add125, 1
  %div127 = udiv i32 %sub126, 64
  %mul128 = mul i32 %div127, 2
  %add129 = add i32 %mul128, 1
  %call130 = call i32 @sp_init_size(ptr noundef %32, i32 noundef %add129)
  store i32 %call130, ptr %err, align 4
  br label %if.end131

if.end131:                                        ; preds = %if.then122, %cond.end107
  %35 = load i32, ptr %err, align 4
  %cmp132 = icmp ne i32 %35, 0
  br i1 %cmp132, label %if.then134, label %if.end138

if.then134:                                       ; preds = %if.end131
  br label %do.body

do.body:                                          ; preds = %if.then134
  br label %do.cond

do.cond:                                          ; preds = %do.body
  br label %do.end

do.end:                                           ; preds = %do.cond
  br label %do.body135

do.body135:                                       ; preds = %do.end
  br label %do.cond136

do.cond136:                                       ; preds = %do.body135
  br label %do.end137

do.end137:                                        ; preds = %do.cond136
  store i32 -125, ptr %retval, align 4
  store i32 1, ptr %cleanup.dest.slot, align 4
  br label %cleanup

if.end138:                                        ; preds = %if.end131
  %36 = load ptr, ptr %P.addr, align 8
  %x139 = getelementptr inbounds %struct.ecc_point, ptr %36, i32 0, i32 0
  %arraydecay140 = getelementptr inbounds [1 x %struct.sp_int], ptr %x139, i64 0, i64 0
  store ptr %arraydecay140, ptr %x, align 8
  %37 = load ptr, ptr %P.addr, align 8
  %y141 = getelementptr inbounds %struct.ecc_point, ptr %37, i32 0, i32 1
  %arraydecay142 = getelementptr inbounds [1 x %struct.sp_int], ptr %y141, i64 0, i64 0
  store ptr %arraydecay142, ptr %y, align 8
  %38 = load ptr, ptr %P.addr, align 8
  %z143 = getelementptr inbounds %struct.ecc_point, ptr %38, i32 0, i32 2
  %arraydecay144 = getelementptr inbounds [1 x %struct.sp_int], ptr %z143, i64 0, i64 0
  store ptr %arraydecay144, ptr %z, align 8
  %39 = load i32, ptr %err, align 4
  %cmp145 = icmp eq i32 %39, 0
  br i1 %cmp145, label %if.then147, label %if.end162

if.then147:                                       ; preds = %if.end138
  %40 = load i32, ptr %ct.addr, align 4
  %tobool = icmp ne i32 %40, 0
  br i1 %tobool, label %if.then148, label %if.else

if.then148:                                       ; preds = %if.then147
  %41 = load ptr, ptr %z, align 8
  %42 = load ptr, ptr %modulus.addr, align 8
  %43 = load ptr, ptr %t1, align 8
  %44 = load i64, ptr %mp.addr, align 8
  %call149 = call i32 @sp_invmod_mont_ct(ptr noundef %41, ptr noundef %42, ptr noundef %43, i64 noundef %44)
  store i32 %call149, ptr %err, align 4
  %45 = load i32, ptr %err, align 4
  %cmp150 = icmp eq i32 %45, 0
  br i1 %cmp150, label %if.then152, label %if.end154

if.then152:                                       ; preds = %if.then148
  %46 = load ptr, ptr %t1, align 8
  %47 = load ptr, ptr %modulus.addr, align 8
  %48 = load i64, ptr %mp.addr, align 8
  %call153 = call i32 @sp_mont_red_ex(ptr noundef %46, ptr noundef %47, i64 noundef %48, i32 noundef 0)
  store i32 %call153, ptr %err, align 4
  br label %if.end154

if.end154:                                        ; preds = %if.then152, %if.then148
  br label %if.end161

if.else:                                          ; preds = %if.then147
  %49 = load ptr, ptr %z, align 8
  %50 = load ptr, ptr %modulus.addr, align 8
  %51 = load i64, ptr %mp.addr, align 8
  %call155 = call i32 @sp_mont_red_ex(ptr noundef %49, ptr noundef %50, i64 noundef %51, i32 noundef 0)
  store i32 %call155, ptr %err, align 4
  %52 = load i32, ptr %err, align 4
  %cmp156 = icmp eq i32 %52, 0
  br i1 %cmp156, label %if.then158, label %if.end160

if.then158:                                       ; preds = %if.else
  %53 = load ptr, ptr %z, align 8
  %54 = load ptr, ptr %modulus.addr, align 8
  %55 = load ptr, ptr %t1, align 8
  %call159 = call i32 @sp_invmod(ptr noundef %53, ptr noundef %54, ptr noundef %55)
  store i32 %call159, ptr %err, align 4
  br label %if.end160

if.end160:                                        ; preds = %if.then158, %if.else
  br label %if.end161

if.end161:                                        ; preds = %if.end160, %if.end154
  br label %if.end162

if.end162:                                        ; preds = %if.end161, %if.end138
  %56 = load i32, ptr %err, align 4
  %cmp163 = icmp eq i32 %56, 0
  br i1 %cmp163, label %if.then165, label %if.end167

if.then165:                                       ; preds = %if.end162
  %57 = load ptr, ptr %t1, align 8
  %58 = load ptr, ptr %t2, align 8
  %call166 = call i32 @sp_sqr(ptr noundef %57, ptr noundef %58)
  store i32 %call166, ptr %err, align 4
  br label %if.end167

if.end167:                                        ; preds = %if.then165, %if.end162
  %59 = load i32, ptr %err, align 4
  %cmp168 = icmp eq i32 %59, 0
  br i1 %cmp168, label %if.then170, label %if.end172

if.then170:                                       ; preds = %if.end167
  %60 = load ptr, ptr %t2, align 8
  %61 = load ptr, ptr %modulus.addr, align 8
  %62 = load ptr, ptr %t2, align 8
  %call171 = call i32 @sp_mod(ptr noundef %60, ptr noundef %61, ptr noundef %62)
  store i32 %call171, ptr %err, align 4
  br label %if.end172

if.end172:                                        ; preds = %if.then170, %if.end167
  %63 = load i32, ptr %err, align 4
  %cmp173 = icmp eq i32 %63, 0
  br i1 %cmp173, label %if.then175, label %if.end177

if.then175:                                       ; preds = %if.end172
  %64 = load ptr, ptr %t1, align 8
  %65 = load ptr, ptr %t2, align 8
  %66 = load ptr, ptr %t1, align 8
  %call176 = call i32 @sp_mul(ptr noundef %64, ptr noundef %65, ptr noundef %66)
  store i32 %call176, ptr %err, align 4
  br label %if.end177

if.end177:                                        ; preds = %if.then175, %if.end172
  %67 = load i32, ptr %err, align 4
  %cmp178 = icmp eq i32 %67, 0
  br i1 %cmp178, label %if.then180, label %if.end182

if.then180:                                       ; preds = %if.end177
  %68 = load ptr, ptr %t1, align 8
  %69 = load ptr, ptr %modulus.addr, align 8
  %70 = load ptr, ptr %t1, align 8
  %call181 = call i32 @sp_mod(ptr noundef %68, ptr noundef %69, ptr noundef %70)
  store i32 %call181, ptr %err, align 4
  br label %if.end182

if.end182:                                        ; preds = %if.then180, %if.end177
  %71 = load i32, ptr %err, align 4
  %cmp183 = icmp eq i32 %71, 0
  br i1 %cmp183, label %if.then185, label %if.end187

if.then185:                                       ; preds = %if.end182
  %72 = load ptr, ptr %x, align 8
  %73 = load ptr, ptr %t2, align 8
  %74 = load ptr, ptr %x, align 8
  %call186 = call i32 @sp_mul(ptr noundef %72, ptr noundef %73, ptr noundef %74)
  store i32 %call186, ptr %err, align 4
  br label %if.end187

if.end187:                                        ; preds = %if.then185, %if.end182
  %75 = load i32, ptr %err, align 4
  %cmp188 = icmp eq i32 %75, 0
  br i1 %cmp188, label %if.then190, label %if.end192

if.then190:                                       ; preds = %if.end187
  %76 = load ptr, ptr %x, align 8
  %77 = load ptr, ptr %modulus.addr, align 8
  %78 = load i64, ptr %mp.addr, align 8
  %call191 = call i32 @sp_mont_red_ex(ptr noundef %76, ptr noundef %77, i64 noundef %78, i32 noundef 0)
  store i32 %call191, ptr %err, align 4
  br label %if.end192

if.end192:                                        ; preds = %if.then190, %if.end187
  %79 = load i32, ptr %err, align 4
  %cmp193 = icmp eq i32 %79, 0
  br i1 %cmp193, label %if.then195, label %if.end197

if.then195:                                       ; preds = %if.end192
  %80 = load ptr, ptr %y, align 8
  %81 = load ptr, ptr %t1, align 8
  %82 = load ptr, ptr %y, align 8
  %call196 = call i32 @sp_mul(ptr noundef %80, ptr noundef %81, ptr noundef %82)
  store i32 %call196, ptr %err, align 4
  br label %if.end197

if.end197:                                        ; preds = %if.then195, %if.end192
  %83 = load i32, ptr %err, align 4
  %cmp198 = icmp eq i32 %83, 0
  br i1 %cmp198, label %if.then200, label %if.end202

if.then200:                                       ; preds = %if.end197
  %84 = load ptr, ptr %y, align 8
  %85 = load ptr, ptr %modulus.addr, align 8
  %86 = load i64, ptr %mp.addr, align 8
  %call201 = call i32 @sp_mont_red_ex(ptr noundef %84, ptr noundef %85, i64 noundef %86, i32 noundef 0)
  store i32 %call201, ptr %err, align 4
  br label %if.end202

if.end202:                                        ; preds = %if.then200, %if.end197
  %87 = load i32, ptr %err, align 4
  %cmp203 = icmp eq i32 %87, 0
  br i1 %cmp203, label %if.then205, label %if.end207

if.then205:                                       ; preds = %if.end202
  %88 = load ptr, ptr %z, align 8
  %call206 = call i32 @sp_set(ptr noundef %88, i64 noundef 1)
  store i32 %call206, ptr %err, align 4
  br label %if.end207

if.end207:                                        ; preds = %if.then205, %if.end202
  %89 = load ptr, ptr %t1, align 8
  call void @sp_clear(ptr noundef %89)
  %90 = load ptr, ptr %t2, align 8
  call void @sp_clear(ptr noundef %90)
  br label %do.body208

do.body208:                                       ; preds = %if.end207
  br label %do.cond209

do.cond209:                                       ; preds = %do.body208
  br label %do.end210

do.end210:                                        ; preds = %do.cond209
  br label %do.body211

do.body211:                                       ; preds = %do.end210
  br label %do.cond212

do.cond212:                                       ; preds = %do.body211
  br label %do.end213

do.end213:                                        ; preds = %do.cond212
  %91 = load i32, ptr %err, align 4
  store i32 %91, ptr %retval, align 4
  store i32 1, ptr %cleanup.dest.slot, align 4
  br label %cleanup

cleanup:                                          ; preds = %do.end213, %do.end137, %if.end62, %if.then
  %92 = load ptr, ptr %saved_stack, align 8
  call void @llvm.stackrestore.p0(ptr %92)
  %93 = load i32, ptr %retval, align 4
  ret i32 %93
}