; Function Attrs: nounwind uwtable
define i32 @ecc_map_ex(ptr noundef %P, ptr noundef %modulus, i64 noundef %mp, i32 noundef %ct) local_unnamed_addr #2 {
entry:
  %0 = load i32, ptr %modulus, align 8
  %mul = shl i32 %0, 4
  %mul1 = and i32 %mul, 1073741808
  %narrow = add nuw nsw i32 %mul1, 16
  %1 = zext nneg i32 %narrow to i64
  %vla = alloca i8, i64 %1, align 16
  %vla37 = alloca i8, i64 %1, align 16
  %cmp38 = icmp eq ptr %P, null
  br i1 %cmp38, label %cleanup, label %if.end

if.end:                                           ; preds = %entry
  %z42 = getelementptr inbounds nuw i8, ptr %P, i64 2080
  %call = tail call i32 @sp_cmp_d(ptr noundef nonnull %z42, i64 noundef 0) #19
  %cmp43 = icmp eq i32 %call, 0
  br i1 %cmp43, label %if.then45, label %if.end63

if.then45:                                        ; preds = %if.end
  %call48 = tail call i32 @sp_set(ptr noundef nonnull %P, i64 noundef 0) #19
  %cmp49 = icmp eq i32 %call48, 0
  br i1 %cmp49, label %if.end55, label %cleanup

if.end55:                                         ; preds = %if.then45
  %y52 = getelementptr inbounds nuw i8, ptr %P, i64 1040
  %call54 = tail call i32 @sp_set(ptr noundef nonnull %y52, i64 noundef 0) #19
  %cmp56 = icmp eq i32 %call54, 0
  br i1 %cmp56, label %if.then58, label %cleanup

if.then58:                                        ; preds = %if.end55
  %call61 = tail call i32 @sp_set(ptr noundef nonnull %z42, i64 noundef 1) #19
  br label %cleanup

if.end63:                                         ; preds = %if.end
  %2 = load i32, ptr %modulus, align 8
  %mul65 = shl i32 %2, 1
  %mul69 = and i32 %mul65, 134217726
  %3 = shl nuw nsw i32 %mul69, 3
  %narrow76 = add nuw nsw i32 %3, 16
  %4 = zext nneg i32 %narrow76 to i64
  call void @llvm.memset.p0.i64(ptr noundef nonnull align 16 dereferenceable(1) %vla, i8 0, i64 %4, i1 false)
  call void @llvm.memset.p0.i64(ptr noundef nonnull align 16 dereferenceable(1) %vla37, i8 0, i64 %4, i1 false)
  %add118 = or disjoint i32 %mul69, 1
  %call119 = call i32 @sp_init_size(ptr noundef nonnull %vla, i32 noundef %add118) #19
  %cmp120 = icmp eq i32 %call119, 0
  br i1 %cmp120, label %if.then122, label %cleanup

if.then122:                                       ; preds = %if.end63
  %5 = load i32, ptr %modulus, align 8
  %mul124 = shl i32 %5, 1
  %mul128 = and i32 %mul124, 134217726
  %add129 = or disjoint i32 %mul128, 1
  %call130 = call i32 @sp_init_size(ptr noundef nonnull %vla37, i32 noundef %add129) #19
  %6 = icmp eq i32 %call130, 0
  br i1 %6, label %if.end138, label %cleanup

if.end138:                                        ; preds = %if.then122
  %y141 = getelementptr inbounds nuw i8, ptr %P, i64 1040
  %tobool.not = icmp eq i32 %ct, 0
  br i1 %tobool.not, label %if.else, label %if.then148

if.then148:                                       ; preds = %if.end138
  %call149 = call i32 @sp_invmod_mont_ct(ptr noundef nonnull %z42, ptr noundef nonnull %modulus, ptr noundef nonnull %vla, i64 noundef %mp) #19
  %cmp150 = icmp eq i32 %call149, 0
  br i1 %cmp150, label %if.then152, label %if.end207

if.then152:                                       ; preds = %if.then148
  %call153 = call i32 @sp_mont_red_ex(ptr noundef nonnull %vla, ptr noundef nonnull %modulus, i64 noundef %mp, i32 noundef 0) #19
  br label %if.end162

if.else:                                          ; preds = %if.end138
  %call155 = call i32 @sp_mont_red_ex(ptr noundef nonnull %z42, ptr noundef nonnull %modulus, i64 noundef %mp, i32 noundef 0) #19
  %cmp156 = icmp eq i32 %call155, 0
  br i1 %cmp156, label %if.then158, label %if.end207

if.then158:                                       ; preds = %if.else
  %call159 = call i32 @sp_invmod(ptr noundef nonnull %z42, ptr noundef nonnull %modulus, ptr noundef nonnull %vla) #19
  br label %if.end162

if.end162:                                        ; preds = %if.then152, %if.then158
  %err.3 = phi i32 [ %call153, %if.then152 ], [ %call159, %if.then158 ]
  %cmp163 = icmp eq i32 %err.3, 0
  br i1 %cmp163, label %if.end167, label %if.end207

if.end167:                                        ; preds = %if.end162
  %call166 = call i32 @sp_sqr(ptr noundef nonnull %vla, ptr noundef nonnull %vla37) #19
  %cmp168 = icmp eq i32 %call166, 0
  br i1 %cmp168, label %if.end172, label %if.end207

if.end172:                                        ; preds = %if.end167
  %call171 = call i32 @sp_mod(ptr noundef nonnull %vla37, ptr noundef nonnull %modulus, ptr noundef nonnull %vla37) #19
  %cmp173 = icmp eq i32 %call171, 0
  br i1 %cmp173, label %if.end177, label %if.end207

if.end177:                                        ; preds = %if.end172
  %call176 = call i32 @sp_mul(ptr noundef nonnull %vla, ptr noundef nonnull %vla37, ptr noundef nonnull %vla) #19
  %cmp178 = icmp eq i32 %call176, 0
  br i1 %cmp178, label %if.end182, label %if.end207

if.end182:                                        ; preds = %if.end177
  %call181 = call i32 @sp_mod(ptr noundef nonnull %vla, ptr noundef nonnull %modulus, ptr noundef nonnull %vla) #19
  %cmp183 = icmp eq i32 %call181, 0
  br i1 %cmp183, label %if.end187, label %if.end207

if.end187:                                        ; preds = %if.end182
  %call186 = call i32 @sp_mul(ptr noundef nonnull %P, ptr noundef nonnull %vla37, ptr noundef nonnull %P) #19
  %cmp188 = icmp eq i32 %call186, 0
  br i1 %cmp188, label %if.end192, label %if.end207

if.end192:                                        ; preds = %if.end187
  %call191 = call i32 @sp_mont_red_ex(ptr noundef nonnull %P, ptr noundef nonnull %modulus, i64 noundef %mp, i32 noundef 0) #19
  %cmp193 = icmp eq i32 %call191, 0
  br i1 %cmp193, label %if.end197, label %if.end207

if.end197:                                        ; preds = %if.end192
  %call196 = call i32 @sp_mul(ptr noundef nonnull %y141, ptr noundef nonnull %vla, ptr noundef nonnull %y141) #19
  %cmp198 = icmp eq i32 %call196, 0
  br i1 %cmp198, label %if.end202, label %if.end207

if.end202:                                        ; preds = %if.end197
  %call201 = call i32 @sp_mont_red_ex(ptr noundef nonnull %y141, ptr noundef nonnull %modulus, i64 noundef %mp, i32 noundef 0) #19
  %cmp203 = icmp eq i32 %call201, 0
  br i1 %cmp203, label %if.then205, label %if.end207

if.then205:                                       ; preds = %if.end202
  %call206 = call i32 @sp_set(ptr noundef nonnull %z42, i64 noundef 1) #19
  br label %if.end207

if.end207:                                        ; preds = %if.else, %if.then148, %if.end162, %if.end167, %if.end172, %if.end177, %if.end182, %if.end187, %if.end192, %if.end197, %if.then205, %if.end202
  %err.12 = phi i32 [ %call206, %if.then205 ], [ %call201, %if.end202 ], [ %call196, %if.end197 ], [ %call191, %if.end192 ], [ %call186, %if.end187 ], [ %call181, %if.end182 ], [ %call176, %if.end177 ], [ %call171, %if.end172 ], [ %call166, %if.end167 ], [ %err.3, %if.end162 ], [ %call155, %if.else ], [ %call149, %if.then148 ]
  call void @sp_clear(ptr noundef nonnull %vla) #19
  call void @sp_clear(ptr noundef nonnull %vla37) #19
  br label %cleanup

cleanup:                                          ; preds = %if.then45, %if.end63, %if.then122, %if.end55, %if.then58, %entry, %if.end207
  %retval.0 = phi i32 [ %err.12, %if.end207 ], [ -170, %entry ], [ %call61, %if.then58 ], [ %call54, %if.end55 ], [ -125, %if.then122 ], [ -125, %if.end63 ], [ %call48, %if.then45 ]
  ret i32 %retval.0
}